target datalayout = "e-m:e-p270:32:32-p271:32:32-p272:64:64-i64:64-i128:128-f80:128-n8:16:32:64-S128"
target triple = "x86_64-pc-linux-gnu"

%struct.H5VL_connector_t = type { ptr, i64, ptr, ptr }
%struct.H5VL_class_t = type { i32, i32, ptr, i32, i64, ptr, ptr, %struct.H5VL_info_class_t, %struct.H5VL_wrap_class_t, %struct.H5VL_attr_class_t, %struct.H5VL_dataset_class_t, %struct.H5VL_datatype_class_t, %struct.H5VL_file_class_t, %struct.H5VL_group_class_t, %struct.H5VL_link_class_t, %struct.H5VL_object_class_t, %struct.H5VL_introspect_class_t, %struct.H5VL_request_class_t, %struct.H5VL_blob_class_t, %struct.H5VL_token_class_t, ptr }
%struct.H5VL_info_class_t = type { i64, ptr, ptr, ptr, ptr, ptr }
%struct.H5VL_wrap_class_t = type { ptr, ptr, ptr, ptr, ptr }
%struct.H5VL_attr_class_t = type { ptr, ptr, ptr, ptr, ptr, ptr, ptr, ptr }
%struct.H5VL_dataset_class_t = type { ptr, ptr, ptr, ptr, ptr, ptr, ptr, ptr }
%struct.H5VL_datatype_class_t = type { ptr, ptr, ptr, ptr, ptr, ptr }
%struct.H5VL_file_class_t = type { ptr, ptr, ptr, ptr, ptr, ptr }
%struct.H5VL_group_class_t = type { ptr, ptr, ptr, ptr, ptr, ptr }
%struct.H5VL_link_class_t = type { ptr, ptr, ptr, ptr, ptr, ptr }
%struct.H5VL_object_class_t = type { ptr, ptr, ptr, ptr, ptr }
%struct.H5VL_introspect_class_t = type { ptr, ptr, ptr }
%struct.H5VL_request_class_t = type { ptr, ptr, ptr, ptr, ptr, ptr }
%struct.H5VL_blob_class_t = type { ptr, ptr, ptr, ptr }
%struct.H5VL_token_class_t = type { ptr, ptr, ptr }
%struct.H5VL_object_t = type { ptr, ptr, i64 }

@.str = private unnamed_addr constant [106 x i8] c"generated/home/dtcxzyw/WorkSpace/Projects/compilers/llvm-opt-benchmark/bench/hdf5/hdf5/src/H5VLcallback.c\00", align 1
@H5E_ARGS_g = external global i64, align 8
@H5E_BADTYPE_g = external global i64, align 8
@H5E_CANTSET_g = external global i64, align 8
@H5E_VOL_g = external global i64, align 8
@H5VL_init_g = external global i8, align 1
@H5_libterm_g = external global i8, align 1
@H5E_FUNC_g = external global i64, align 8
@H5E_CANTINIT_g = external global i64, align 8
@.str.5 = private unnamed_addr constant [32 x i8] c"interface initialization failed\00", align 1
@H5E_CANTCOPY_g = external global i64, align 8
@.str.24 = private unnamed_addr constant [27 x i8] c"can't set VOL wrapper info\00", align 1
@H5E_CANTRESET_g = external global i64, align 8
@.str.26 = private unnamed_addr constant [29 x i8] c"can't reset VOL wrapper info\00", align 1
@__func__.H5VL_object_copy = private unnamed_addr constant [17 x i8] c"H5VL_object_copy\00", align 1
@.str.129 = private unnamed_addr constant [74 x i8] c"objects are accessed through different VOL connectors and can't be copied\00", align 1
@.str.130 = private unnamed_addr constant [19 x i8] c"object copy failed\00", align 1

; Function Attrs: nounwind uwtable
define i32 @H5VL_object_copy(ptr noundef %0, ptr noundef %1, ptr noundef %2, ptr noundef %3, ptr noundef %4, ptr noundef %5, i64 noundef %6, i64 noundef %7, i64 noundef %8, ptr noundef %9) #0 {
  %11 = alloca ptr, align 8
  %12 = alloca ptr, align 8
  %13 = alloca ptr, align 8
  %14 = alloca ptr, align 8
  %15 = alloca ptr, align 8
  %16 = alloca ptr, align 8
  %17 = alloca i64, align 8
  %18 = alloca i64, align 8
  %19 = alloca i64, align 8
  %20 = alloca ptr, align 8
  %21 = alloca i8, align 1
  %22 = alloca i32, align 4
  %23 = alloca i8, align 1
  store ptr %0, ptr %11, align 8, !tbaa !58
  store ptr %1, ptr %12, align 8, !tbaa !60
  store ptr %2, ptr %13, align 8, !tbaa !50
  store ptr %3, ptr %14, align 8, !tbaa !58
  store ptr %4, ptr %15, align 8, !tbaa !60
  store ptr %5, ptr %16, align 8, !tbaa !50
  store i64 %6, ptr %17, align 8, !tbaa !3
  store i64 %7, ptr %18, align 8, !tbaa !3
  store i64 %8, ptr %19, align 8, !tbaa !3
  store ptr %9, ptr %20, align 8, !tbaa !42
  call void @llvm.lifetime.start.p0(i64 1, ptr %21) #8
  store i8 0, ptr %21, align 1, !tbaa !9
  call void @llvm.lifetime.start.p0(i64 4, ptr %22) #8
  store i32 0, ptr %22, align 4, !tbaa !7
  call void @llvm.lifetime.start.p0(i64 1, ptr %23) #8
  store i8 0, ptr %23, align 1, !tbaa !9
  %24 = load i8, ptr @H5VL_init_g, align 1, !tbaa !9, !range !14, !noundef !15
  %25 = trunc i8 %24 to i1
  br i1 %25, label %30, label %26

26:                                               ; preds = %10
  %27 = load i8, ptr @H5_libterm_g, align 1, !tbaa !9, !range !14, !noundef !15
  %28 = trunc i8 %27 to i1
  %29 = xor i1 %28, true
  br label %30

30:                                               ; preds = %26, %10
  %31 = phi i1 [ false, %10 ], [ %29, %26 ]
  %32 = xor i1 %31, true
  %33 = xor i1 %32, true
  %34 = zext i1 %33 to i32
  %35 = sext i32 %34 to i64
  %36 = call i64 @llvm.expect.i64(i64 %35, i64 0)
  %37 = icmp ne i64 %36, 0
  br i1 %37, label %38, label %61

38:                                               ; preds = %30
  store i8 1, ptr @H5VL_init_g, align 1, !tbaa !9
  %39 = call i32 @H5VL__init_package()
  %40 = icmp slt i32 %39, 0
  br i1 %40, label %41, label %60

41:                                               ; preds = %38
  store i8 0, ptr @H5VL_init_g, align 1, !tbaa !9
  br label %42

42:                                               ; preds = %41
  br label %43

43:                                               ; preds = %42
  br label %44

44:                                               ; preds = %43
  %45 = load i64, ptr @H5E_FUNC_g, align 8, !tbaa !3
  %46 = load i64, ptr @H5E_CANTINIT_g, align 8, !tbaa !3
  %47 = call i32 (ptr, ptr, i32, i64, i64, ptr, ...) @H5E_printf_stack(ptr noundef @.str, ptr noundef @__func__.H5VL_object_copy, i32 noundef 5966, i64 noundef %45, i64 noundef %46, ptr noundef @.str.5)
  br label %48

48:                                               ; preds = %44
  br label %49

49:                                               ; preds = %48
  store i8 1, ptr %23, align 1, !tbaa !9
  %50 = load i8, ptr %23, align 1, !tbaa !9, !range !14, !noundef !15
  %51 = trunc i8 %50 to i1
  %52 = zext i1 %51 to i8
  store i8 %52, ptr %23, align 1, !tbaa !9
  br label %53

53:                                               ; preds = %49
  br label %54

54:                                               ; preds = %53
  br label %55

55:                                               ; preds = %54
  store i32 -1, ptr %22, align 4, !tbaa !7
  br label %176

56:                                               ; No predecessors!
  br label %57

57:                                               ; preds = %56
  br label %58

58:                                               ; preds = %57
  br label %59

59:                                               ; preds = %58
  br label %60

60:                                               ; preds = %59, %38
  br label %61

61:                                               ; preds = %60, %30
  %62 = load i8, ptr @H5VL_init_g, align 1, !tbaa !9, !range !14, !noundef !15
  %63 = trunc i8 %62 to i1
  br i1 %63, label %68, label %64

64:                                               ; preds = %61
  %65 = load i8, ptr @H5_libterm_g, align 1, !tbaa !9, !range !14, !noundef !15
  %66 = trunc i8 %65 to i1
  %67 = xor i1 %66, true
  br label %68

68:                                               ; preds = %64, %61
  %69 = phi i1 [ true, %61 ], [ %67, %64 ]
  %70 = xor i1 %69, true
  %71 = xor i1 %70, true
  %72 = zext i1 %71 to i32
  %73 = sext i32 %72 to i64
  %74 = call i64 @llvm.expect.i64(i64 %73, i64 1)
  %75 = icmp ne i64 %74, 0
  br i1 %75, label %76, label %199

76:                                               ; preds = %68
  %77 = load ptr, ptr %11, align 8, !tbaa !58
  %78 = getelementptr inbounds nuw %struct.H5VL_object_t, ptr %77, i32 0, i32 1
  %79 = load ptr, ptr %78, align 8, !tbaa !64
  %80 = getelementptr inbounds nuw %struct.H5VL_connector_t, ptr %79, i32 0, i32 0
  %81 = load ptr, ptr %80, align 8, !tbaa !16
  %82 = getelementptr inbounds nuw %struct.H5VL_class_t, ptr %81, i32 0, i32 1
  %83 = load i32, ptr %82, align 4, !tbaa !41
  %84 = load ptr, ptr %14, align 8, !tbaa !58
  %85 = getelementptr inbounds nuw %struct.H5VL_object_t, ptr %84, i32 0, i32 1
  %86 = load ptr, ptr %85, align 8, !tbaa !64
  %87 = getelementptr inbounds nuw %struct.H5VL_connector_t, ptr %86, i32 0, i32 0
  %88 = load ptr, ptr %87, align 8, !tbaa !16
  %89 = getelementptr inbounds nuw %struct.H5VL_class_t, ptr %88, i32 0, i32 1
  %90 = load i32, ptr %89, align 4, !tbaa !41
  %91 = icmp ne i32 %83, %90
  br i1 %91, label %92, label %111

92:                                               ; preds = %76
  br label %93

93:                                               ; preds = %92
  br label %94

94:                                               ; preds = %93
  br label %95

95:                                               ; preds = %94
  %96 = load i64, ptr @H5E_ARGS_g, align 8, !tbaa !3
  %97 = load i64, ptr @H5E_BADTYPE_g, align 8, !tbaa !3
  %98 = call i32 (ptr, ptr, i32, i64, i64, ptr, ...) @H5E_printf_stack(ptr noundef @.str, ptr noundef @__func__.H5VL_object_copy, i32 noundef 5971, i64 noundef %96, i64 noundef %97, ptr noundef @.str.129)
  br label %99

99:                                               ; preds = %95
  br label %100

100:                                              ; preds = %99
  store i8 1, ptr %23, align 1, !tbaa !9
  %101 = load i8, ptr %23, align 1, !tbaa !9, !range !14, !noundef !15
  %102 = trunc i8 %101 to i1
  %103 = zext i1 %102 to i8
  store i8 %103, ptr %23, align 1, !tbaa !9
  br label %104

104:                                              ; preds = %100
  br label %105

105:                                              ; preds = %104
  br label %106

106:                                              ; preds = %105
  store i32 -1, ptr %22, align 4, !tbaa !7
  br label %176

107:                                              ; No predecessors!
  br label %108

108:                                              ; preds = %107
  br label %109

109:                                              ; preds = %108
  br label %110

110:                                              ; preds = %109
  br label %111

111:                                              ; preds = %110, %76
  %112 = load ptr, ptr %11, align 8, !tbaa !58
  %113 = call i32 @H5VL_set_vol_wrapper(ptr noundef %112)
  %114 = icmp slt i32 %113, 0
  br i1 %114, label %115, label %134

115:                                              ; preds = %111
  br label %116

116:                                              ; preds = %115
  br label %117

117:                                              ; preds = %116
  br label %118

118:                                              ; preds = %117
  %119 = load i64, ptr @H5E_VOL_g, align 8, !tbaa !3
  %120 = load i64, ptr @H5E_CANTSET_g, align 8, !tbaa !3
  %121 = call i32 (ptr, ptr, i32, i64, i64, ptr, ...) @H5E_printf_stack(ptr noundef @.str, ptr noundef @__func__.H5VL_object_copy, i32 noundef 5975, i64 noundef %119, i64 noundef %120, ptr noundef @.str.24)
  br label %122

122:                                              ; preds = %118
  br label %123

123:                                              ; preds = %122
  store i8 1, ptr %23, align 1, !tbaa !9
  %124 = load i8, ptr %23, align 1, !tbaa !9, !range !14, !noundef !15
  %125 = trunc i8 %124 to i1
  %126 = zext i1 %125 to i8
  store i8 %126, ptr %23, align 1, !tbaa !9
  br label %127

127:                                              ; preds = %123
  br label %128

128:                                              ; preds = %127
  br label %129

129:                                              ; preds = %128
  store i32 -1, ptr %22, align 4, !tbaa !7
  br label %176

130:                                              ; No predecessors!
  br label %131

131:                                              ; preds = %130
  br label %132

132:                                              ; preds = %131
  br label %133

133:                                              ; preds = %132
  br label %134

134:                                              ; preds = %133, %111
  store i8 1, ptr %21, align 1, !tbaa !9
  %135 = load ptr, ptr %11, align 8, !tbaa !58
  %136 = getelementptr inbounds nuw %struct.H5VL_object_t, ptr %135, i32 0, i32 0
  %137 = load ptr, ptr %136, align 8, !tbaa !62
  %138 = load ptr, ptr %12, align 8, !tbaa !60
  %139 = load ptr, ptr %13, align 8, !tbaa !50
  %140 = load ptr, ptr %14, align 8, !tbaa !58
  %141 = getelementptr inbounds nuw %struct.H5VL_object_t, ptr %140, i32 0, i32 0
  %142 = load ptr, ptr %141, align 8, !tbaa !62
  %143 = load ptr, ptr %15, align 8, !tbaa !60
  %144 = load ptr, ptr %16, align 8, !tbaa !50
  %145 = load ptr, ptr %11, align 8, !tbaa !58
  %146 = getelementptr inbounds nuw %struct.H5VL_object_t, ptr %145, i32 0, i32 1
  %147 = load ptr, ptr %146, align 8, !tbaa !64
  %148 = getelementptr inbounds nuw %struct.H5VL_connector_t, ptr %147, i32 0, i32 0
  %149 = load ptr, ptr %148, align 8, !tbaa !16
  %150 = load i64, ptr %17, align 8, !tbaa !3
  %151 = load i64, ptr %18, align 8, !tbaa !3
  %152 = load i64, ptr %19, align 8, !tbaa !3
  %153 = load ptr, ptr %20, align 8, !tbaa !42
  %154 = call i32 @H5VL__object_copy(ptr noundef %137, ptr noundef %138, ptr noundef %139, ptr noundef %142, ptr noundef %143, ptr noundef %144, ptr noundef %149, i64 noundef %150, i64 noundef %151, i64 noundef %152, ptr noundef %153)
  %155 = icmp slt i32 %154, 0
  br i1 %155, label %156, label %175

156:                                              ; preds = %134
  br label %157

157:                                              ; preds = %156
  br label %158

158:                                              ; preds = %157
  br label %159

159:                                              ; preds = %158
  %160 = load i64, ptr @H5E_VOL_g, align 8, !tbaa !3
  %161 = load i64, ptr @H5E_CANTCOPY_g, align 8, !tbaa !3
  %162 = call i32 (ptr, ptr, i32, i64, i64, ptr, ...) @H5E_printf_stack(ptr noundef @.str, ptr noundef @__func__.H5VL_object_copy, i32 noundef 5981, i64 noundef %160, i64 noundef %161, ptr noundef @.str.130)
  br label %163

163:                                              ; preds = %159
  br label %164

164:                                              ; preds = %163
  store i8 1, ptr %23, align 1, !tbaa !9
  %165 = load i8, ptr %23, align 1, !tbaa !9, !range !14, !noundef !15
  %166 = trunc i8 %165 to i1
  %167 = zext i1 %166 to i8
  store i8 %167, ptr %23, align 1, !tbaa !9
  br label %168

168:                                              ; preds = %164
  br label %169

169:                                              ; preds = %168
  br label %170

170:                                              ; preds = %169
  store i32 -1, ptr %22, align 4, !tbaa !7
  br label %176

171:                                              ; No predecessors!
  br label %172

172:                                              ; preds = %171
  br label %173

173:                                              ; preds = %172
  br label %174

174:                                              ; preds = %173
  br label %175

175:                                              ; preds = %174, %134
  br label %176

176:                                              ; preds = %175, %170, %129, %106, %55
  %177 = load i8, ptr %21, align 1, !tbaa !9, !range !14, !noundef !15
  %178 = trunc i8 %177 to i1
  br i1 %178, label %179, label %198

179:                                              ; preds = %176
  %180 = call i32 @H5VL_reset_vol_wrapper()
  %181 = icmp slt i32 %180, 0
  br i1 %181, label %182, label %198

182:                                              ; preds = %179
  br label %183

183:                                              ; preds = %182
  br label %184

184:                                              ; preds = %183
  br label %185

185:                                              ; preds = %184
  %186 = load i64, ptr @H5E_VOL_g, align 8, !tbaa !3
  %187 = load i64, ptr @H5E_CANTRESET_g, align 8, !tbaa !3
  %188 = call i32 (ptr, ptr, i32, i64, i64, ptr, ...) @H5E_printf_stack(ptr noundef @.str, ptr noundef @__func__.H5VL_object_copy, i32 noundef 5986, i64 noundef %186, i64 noundef %187, ptr noundef @.str.26)
  br label %189

189:                                              ; preds = %185
  br label %190

190:                                              ; preds = %189
  store i8 1, ptr %23, align 1, !tbaa !9
  %191 = load i8, ptr %23, align 1, !tbaa !9, !range !14, !noundef !15
  %192 = trunc i8 %191 to i1
  %193 = zext i1 %192 to i8
  store i8 %193, ptr %23, align 1, !tbaa !9
  br label %194

194:                                              ; preds = %190
  br label %195

195:                                              ; preds = %194
  store i32 -1, ptr %22, align 4, !tbaa !7
  br label %196

196:                                              ; preds = %195
  br label %197

197:                                              ; preds = %196
  br label %198

198:                                              ; preds = %197, %179, %176
  br label %199

199:                                              ; preds = %198, %68
  %200 = load i32, ptr %22, align 4, !tbaa !7
  call void @llvm.lifetime.end.p0(i64 1, ptr %23) #8
  call void @llvm.lifetime.end.p0(i64 4, ptr %22) #8
  call void @llvm.lifetime.end.p0(i64 1, ptr %21) #8
  ret i32 %200
}