; Function Attrs: nounwind uwtable
define range(i32 -1, 1) i32 @H5VL_object_copy(ptr noundef %0, ptr noundef %1, ptr noundef %2, ptr noundef readonly captures(none) %3, ptr noundef %4, ptr noundef %5, i64 noundef %6, i64 noundef %7, i64 noundef %8, ptr noundef %9) local_unnamed_addr #0 {
  %11 = load i8, ptr @H5VL_init_g, align 1, !tbaa !33, !range !35, !noundef !36
  %12 = trunc nuw i8 %11 to i1
  %13 = load i8, ptr @H5_libterm_g, align 1, !range !35
  %14 = trunc nuw i8 %13 to i1
  %15 = select i1 %12, i1 true, i1 %14
  br i1 %15, label %23, label %16, !prof !37

16:                                               ; preds = %10
  store i8 1, ptr @H5VL_init_g, align 1, !tbaa !33
  %17 = tail call i32 @H5VL__init_package() #7
  %18 = icmp slt i32 %17, 0
  br i1 %18, label %19, label %._crit_edge

._crit_edge:                                      ; preds = %16
  %.pre = load i8, ptr @H5VL_init_g, align 1, !tbaa !33, !range !35
  %.pre23 = load i8, ptr @H5_libterm_g, align 1, !range !35
  %.pre24 = trunc nuw i8 %.pre to i1
  %.pre25 = trunc nuw i8 %.pre23 to i1
  br label %23

19:                                               ; preds = %16
  store i8 0, ptr @H5VL_init_g, align 1, !tbaa !33
  %20 = load i64, ptr @H5E_FUNC_g, align 8, !tbaa !3
  %21 = load i64, ptr @H5E_CANTINIT_g, align 8, !tbaa !3
  %22 = tail call i32 (ptr, ptr, i32, i64, i64, ptr, ...) @H5E_printf_stack(ptr noundef nonnull @.str, ptr noundef nonnull @__func__.H5VL_object_copy, i32 noundef 5966, i64 noundef %20, i64 noundef %21, ptr noundef nonnull @.str.5) #7
  br label %.thread

23:                                               ; preds = %._crit_edge, %10
  %.pre-phi26 = phi i1 [ %.pre25, %._crit_edge ], [ %14, %10 ]
  %.pre-phi = phi i1 [ %.pre24, %._crit_edge ], [ %12, %10 ]
  %24 = xor i1 %.pre-phi26, true
  %25 = select i1 %.pre-phi, i1 true, i1 %24
  br i1 %25, label %26, label %.thread, !prof !37

26:                                               ; preds = %23
  %27 = getelementptr inbounds nuw i8, ptr %0, i64 8
  %28 = load ptr, ptr %27, align 8, !tbaa !57
  %29 = load ptr, ptr %28, align 8, !tbaa !7
  %30 = getelementptr inbounds nuw i8, ptr %29, i64 4
  %31 = load i32, ptr %30, align 4, !tbaa !31
  %32 = getelementptr inbounds nuw i8, ptr %3, i64 8
  %33 = load ptr, ptr %32, align 8, !tbaa !57
  %34 = load ptr, ptr %33, align 8, !tbaa !7
  %35 = getelementptr inbounds nuw i8, ptr %34, i64 4
  %36 = load i32, ptr %35, align 4, !tbaa !31
  %.not = icmp eq i32 %31, %36
  br i1 %.not, label %41, label %37

37:                                               ; preds = %26
  %38 = load i64, ptr @H5E_ARGS_g, align 8, !tbaa !3
  %39 = load i64, ptr @H5E_BADTYPE_g, align 8, !tbaa !3
  %40 = tail call i32 (ptr, ptr, i32, i64, i64, ptr, ...) @H5E_printf_stack(ptr noundef nonnull @.str, ptr noundef nonnull @__func__.H5VL_object_copy, i32 noundef 5971, i64 noundef %38, i64 noundef %39, ptr noundef nonnull @.str.129) #7
  br label %.thread

41:                                               ; preds = %26
  %42 = tail call i32 @H5VL_set_vol_wrapper(ptr noundef nonnull %0) #7
  %43 = icmp slt i32 %42, 0
  br i1 %43, label %44, label %48

44:                                               ; preds = %41
  %45 = load i64, ptr @H5E_VOL_g, align 8, !tbaa !3
  %46 = load i64, ptr @H5E_CANTSET_g, align 8, !tbaa !3
  %47 = tail call i32 (ptr, ptr, i32, i64, i64, ptr, ...) @H5E_printf_stack(ptr noundef nonnull @.str, ptr noundef nonnull @__func__.H5VL_object_copy, i32 noundef 5975, i64 noundef %45, i64 noundef %46, ptr noundef nonnull @.str.24) #7
  br label %.thread

48:                                               ; preds = %41
  %49 = load ptr, ptr %0, align 8, !tbaa !55
  %50 = load ptr, ptr %3, align 8, !tbaa !55
  %51 = load ptr, ptr %27, align 8, !tbaa !57
  %52 = load ptr, ptr %51, align 8, !tbaa !7
  %53 = tail call fastcc i32 @H5VL__object_copy(ptr noundef %49, ptr noundef %1, ptr noundef %2, ptr noundef %50, ptr noundef %4, ptr noundef %5, ptr noundef %52, i64 noundef %6, i64 noundef %7, i64 noundef %8, ptr noundef %9)
  %54 = icmp slt i32 %53, 0
  br i1 %54, label %55, label %59

55:                                               ; preds = %48
  %56 = load i64, ptr @H5E_VOL_g, align 8, !tbaa !3
  %57 = load i64, ptr @H5E_CANTCOPY_g, align 8, !tbaa !3
  %58 = tail call i32 (ptr, ptr, i32, i64, i64, ptr, ...) @H5E_printf_stack(ptr noundef nonnull @.str, ptr noundef nonnull @__func__.H5VL_object_copy, i32 noundef 5981, i64 noundef %56, i64 noundef %57, ptr noundef nonnull @.str.130) #7
  br label %59

59:                                               ; preds = %55, %48
  %.0 = phi i32 [ -1, %55 ], [ 0, %48 ]
  %60 = tail call i32 @H5VL_reset_vol_wrapper() #7
  %61 = icmp slt i32 %60, 0
  br i1 %61, label %62, label %.thread

62:                                               ; preds = %59
  %63 = load i64, ptr @H5E_VOL_g, align 8, !tbaa !3
  %64 = load i64, ptr @H5E_CANTRESET_g, align 8, !tbaa !3
  %65 = tail call i32 (ptr, ptr, i32, i64, i64, ptr, ...) @H5E_printf_stack(ptr noundef nonnull @.str, ptr noundef nonnull @__func__.H5VL_object_copy, i32 noundef 5986, i64 noundef %63, i64 noundef %64, ptr noundef nonnull @.str.26) #7
  br label %.thread

.thread:                                          ; preds = %44, %37, %19, %59, %62, %23
  %.1 = phi i32 [ -1, %62 ], [ %.0, %59 ], [ 0, %23 ], [ -1, %19 ], [ -1, %37 ], [ -1, %44 ]
  ret i32 %.1
}